target datalayout = "e-m:e-p270:32:32-p271:32:32-p272:64:64-i64:64-i128:128-f80:128-n8:16:32:64-S128"
target triple = "x86_64-unknown-linux-gnu"

@_ZN12_GLOBAL__N_17gVoTrieE = internal global ptr null, align 8

; Function Attrs: mustprogress uwtable
define internal noundef signext i8 @_ZN12_GLOBAL__N_118ulayout_ensureDataEv() #0 {
entry:
  %errorCode = alloca i32, align 4
  store i32 0, ptr %errorCode, align 4
  %call = call noundef signext i8 @_ZN12_GLOBAL__N_118ulayout_ensureDataER10UErrorCode(ptr noundef nonnull align 4 dereferenceable(4) %errorCode)
  ret i8 %call
}

; Function Attrs: mustprogress uwtable
define internal noundef i32 @_ZL5getVoRK11IntPropertyi9UProperty(ptr noundef nonnull align 8 dereferenceable(32) %0, i32 noundef %c, i32 noundef %1) #0 {
entry:
  %.addr = alloca ptr, align 8
  %c.addr = alloca i32, align 4
  %.addr1 = alloca i32, align 4
  store ptr %0, ptr %.addr, align 8
  store i32 %c, ptr %c.addr, align 4
  store i32 %1, ptr %.addr1, align 4
  %call = call noundef signext i8 @_ZN12_GLOBAL__N_118ulayout_ensureDataEv()
  %tobool = icmp ne i8 %call, 0
  br i1 %tobool, label %land.lhs.true, label %cond.false

land.lhs.true:                                    ; preds = %entry
  %2 = load ptr, ptr @_ZN12_GLOBAL__N_17gVoTrieE, align 8
  %cmp = icmp ne ptr %2, null
  br i1 %cmp, label %cond.true, label %cond.false

cond.true:                                        ; preds = %land.lhs.true
  %3 = load ptr, ptr @_ZN12_GLOBAL__N_17gVoTrieE, align 8
  %4 = load i32, ptr %c.addr, align 4
  %call2 = call i32 @ucptrie_get_75(ptr noundef %3, i32 noundef %4)
  br label %cond.end

cond.false:                                       ; preds = %land.lhs.true, %entry
  br label %cond.end

cond.end:                                         ; preds = %cond.false, %cond.true
  %cond = phi i32 [ %call2, %cond.true ], [ 0, %cond.false ]
  ret i32 %cond
}